ARM GAS  C:\Users\arh\AppData\Local\Temp\ccmc4WvP.s 			page 1


   1              		.cpu cortex-m0
   2              		.fpu softvfp
   3              		.eabi_attribute 20, 1
   4              		.eabi_attribute 21, 1
   5              		.eabi_attribute 23, 3
   6              		.eabi_attribute 24, 1
   7              		.eabi_attribute 25, 1
   8              		.eabi_attribute 26, 1
   9              		.eabi_attribute 30, 6
  10              		.eabi_attribute 34, 0
  11              		.eabi_attribute 18, 4
  12              		.code	16
  13              		.file	"main.c"
  14              		.text
  15              	.Ltext0:
  16              		.cfi_sections	.debug_frame
  17              		.global _printf_float
  18              		.code	16
  19              		.global	parity
  20              		.section	.rodata
  21              		.align	2
  22              	.LC0:
  23 0000 4E6F6E65 		.ascii	"None\000"
  23      00
  24 0005 000000   		.align	2
  25              	.LC1:
  26 0008 4F646400 		.ascii	"Odd\000"
  27              		.align	2
  28              	.LC2:
  29 000c 4576656E 		.ascii	"Even\000"
  29      00
  30 0011 000000   		.align	2
  31              	.LC3:
  32 0014 4D61726B 		.ascii	"Mark\000"
  32      00
  33 0019 000000   		.align	2
  34              	.LC4:
  35 001c 53706163 		.ascii	"Space\000"
  35      6500
  36              		.data
  37              		.align	2
  38              		.type	parity, %object
  39              		.size	parity, 20
  40              	parity:
  41 0000 00000000 		.word	.LC0
  42 0004 08000000 		.word	.LC1
  43 0008 0C000000 		.word	.LC2
  44 000c 14000000 		.word	.LC3
  45 0010 1C000000 		.word	.LC4
  46              		.global	stop
  47              		.section	.rodata
  48 0022 0000     		.align	2
  49              	.LC5:
  50 0024 3100     		.ascii	"1\000"
  51 0026 0000     		.align	2
  52              	.LC6:
  53 0028 312E3500 		.ascii	"1.5\000"
ARM GAS  C:\Users\arh\AppData\Local\Temp\ccmc4WvP.s 			page 2


  54              		.align	2
  55              	.LC7:
  56 002c 3200     		.ascii	"2\000"
  57 002e 0000     		.data
  58              		.align	2
  59              		.type	stop, %object
  60              		.size	stop, 12
  61              	stop:
  62 0014 24000000 		.word	.LC5
  63 0018 28000000 		.word	.LC6
  64 001c 2C000000 		.word	.LC7
  65              		.section	.text.main,"ax",%progbits
  66              		.align	2
  67              		.global	main
  68              		.code	16
  69              		.thumb_func
  70              		.type	main, %function
  71              	main:
  72              	.LFB36:
  73              		.file 1 "main.c"
   1:main.c        **** /*******************************************************************************
   2:main.c        **** * File Name: main.c
   3:main.c        **** *
   4:main.c        **** * Version: 2.0
   5:main.c        **** *
   6:main.c        **** * Description:
   7:main.c        **** *   The component is enumerated as a Virtual Com port. Receives data from the 
   8:main.c        **** *   hyper terminal, then sends back the received data.
   9:main.c        **** *   For PSoC3/PSoC5LP, the LCD shows the line settings.
  10:main.c        **** *
  11:main.c        **** * Related Document:
  12:main.c        **** *  Universal Serial Bus Specification Revision 2.0
  13:main.c        **** *  Universal Serial Bus Class Definitions for Communications Devices
  14:main.c        **** *  Revision 1.2
  15:main.c        **** *
  16:main.c        **** ********************************************************************************
  17:main.c        **** * Copyright 2015, Cypress Semiconductor Corporation. All rights reserved.
  18:main.c        **** * This software is owned by Cypress Semiconductor Corporation and is protected
  19:main.c        **** * by and subject to worldwide patent and copyright laws and treaties.
  20:main.c        **** * Therefore, you may use this software only as provided in the license agreement
  21:main.c        **** * accompanying the software package from which you obtained this software.
  22:main.c        **** * CYPRESS AND ITS SUPPLIERS MAKE NO WARRANTY OF ANY KIND, EXPRESS OR IMPLIED,
  23:main.c        **** * WITH REGARD TO THIS SOFTWARE, INCLUDING, BUT NOT LIMITED TO, NONINFRINGEMENT,
  24:main.c        **** * IMPLIED WARRANTIES OF MERCHANTABILITY AND FITNESS FOR A PARTICULAR PURPOSE.
  25:main.c        **** *******************************************************************************/
  26:main.c        **** 
  27:main.c        **** #include <project.h>
  28:main.c        **** #include "stdio.h"
  29:main.c        **** 
  30:main.c        **** #if defined (__GNUC__)
  31:main.c        ****     /* Add an explicit reference to the floating point printf library */
  32:main.c        ****     /* to allow usage of the floating point conversion specifiers. */
  33:main.c        ****     /* This is not linked in by default with the newlib-nano library. */
  34:main.c        ****     asm (".global _printf_float");
  35:main.c        **** #endif
  36:main.c        **** 
  37:main.c        **** #define USBFS_DEVICE    (0u)
ARM GAS  C:\Users\arh\AppData\Local\Temp\ccmc4WvP.s 			page 3


  38:main.c        **** 
  39:main.c        **** /* The buffer size is equal to the maximum packet size of the IN and OUT bulk
  40:main.c        **** * endpoints.
  41:main.c        **** */
  42:main.c        **** #define USBUART_BUFFER_SIZE (64u)
  43:main.c        **** #define LINE_STR_LENGTH     (20u)
  44:main.c        **** 
  45:main.c        **** char8* parity[] = {"None", "Odd", "Even", "Mark", "Space"};
  46:main.c        **** char8* stop[]   = {"1", "1.5", "2"};
  47:main.c        **** 
  48:main.c        **** 
  49:main.c        **** /*******************************************************************************
  50:main.c        **** * Function Name: main
  51:main.c        **** ********************************************************************************
  52:main.c        **** *
  53:main.c        **** * Summary:
  54:main.c        **** *  The main function performs the following actions:
  55:main.c        **** *   1. Waits until VBUS becomes valid and starts the USBFS component which is
  56:main.c        **** *      enumerated as virtual Com port.
  57:main.c        **** *   2. Waits until the device is enumerated by the host.
  58:main.c        **** *   3. Waits for data coming from the hyper terminal and sends it back.
  59:main.c        **** *   4. PSoC3/PSoC5LP: the LCD shows the line settings.
  60:main.c        **** *
  61:main.c        **** * Parameters:
  62:main.c        **** *  None.
  63:main.c        **** *
  64:main.c        **** * Return:
  65:main.c        **** *  None.
  66:main.c        **** *
  67:main.c        **** *******************************************************************************/
  68:main.c        **** int main()
  69:main.c        **** {
  74              		.loc 1 69 0
  75              		.cfi_startproc
  76 0000 90B5     		push	{r4, r7, lr}
  77              		.cfi_def_cfa_offset 12
  78              		.cfi_offset 4, -12
  79              		.cfi_offset 7, -8
  80              		.cfi_offset 14, -4
  81 0002 93B0     		sub	sp, sp, #76
  82              		.cfi_def_cfa_offset 88
  83 0004 00AF     		add	r7, sp, #0
  84              		.cfi_def_cfa_register 7
  70:main.c        ****     uint16 count;
  71:main.c        ****     uint8 buffer[USBUART_BUFFER_SIZE];
  72:main.c        ****     
  73:main.c        **** #if (CY_PSOC3 || CY_PSOC5LP)
  74:main.c        ****     uint8 state;
  75:main.c        ****     char8 lineStr[LINE_STR_LENGTH];
  76:main.c        ****     
  77:main.c        ****     LCD_Start();
  78:main.c        **** #endif /* (CY_PSOC3 || CY_PSOC5LP) */
  79:main.c        ****     
  80:main.c        ****     CyGlobalIntEnable;
  85              		.loc 1 80 0
  86              	@ 80 "main.c" 1
  87 0006 62B6     		CPSIE   i
ARM GAS  C:\Users\arh\AppData\Local\Temp\ccmc4WvP.s 			page 4


  88              	@ 0 "" 2
  81:main.c        **** 
  82:main.c        ****     /* Start USBFS operation with 5-V operation. */
  83:main.c        ****     USBUART_Start(USBFS_DEVICE, USBUART_5V_OPERATION);
  89              		.loc 1 83 0
  90              		.code	16
  91 0008 0020     		mov	r0, #0
  92 000a 0121     		mov	r1, #1
  93 000c FFF7FEFF 		bl	USBUART_Start
  94              	.L6:
  84:main.c        ****     
  85:main.c        ****     for(;;)
  86:main.c        ****     {
  87:main.c        ****         /* Host can send double SET_INTERFACE request. */
  88:main.c        ****         if (0u != USBUART_IsConfigurationChanged())
  95              		.loc 1 88 0
  96 0010 FFF7FEFF 		bl	USBUART_IsConfigurationChanged
  97 0014 031E     		sub	r3, r0, #0
  98 0016 05D0     		beq	.L2
  89:main.c        ****         {
  90:main.c        ****             /* Initialize IN endpoints when device is configured. */
  91:main.c        ****             if (0u != USBUART_GetConfiguration())
  99              		.loc 1 91 0
 100 0018 FFF7FEFF 		bl	USBUART_GetConfiguration
 101 001c 031E     		sub	r3, r0, #0
 102 001e 01D0     		beq	.L2
  92:main.c        ****             {
  93:main.c        ****                 /* Enumeration is done, enable OUT endpoint to receive data 
  94:main.c        ****                  * from host. */
  95:main.c        ****                 USBUART_CDC_Init();
 103              		.loc 1 95 0
 104 0020 FFF7FEFF 		bl	USBUART_CDC_Init
 105              	.L2:
  96:main.c        ****             }
  97:main.c        ****         }
  98:main.c        **** 
  99:main.c        ****         /* Service USB CDC when device is configured. */
 100:main.c        ****         if (0u != USBUART_GetConfiguration())
 106              		.loc 1 100 0
 107 0024 FFF7FEFF 		bl	USBUART_GetConfiguration
 108 0028 031E     		sub	r3, r0, #0
 109 002a 2BD0     		beq	.L3
 101:main.c        ****         {
 102:main.c        ****             /* Check for input data from host. */
 103:main.c        ****             if (0u != USBUART_DataIsReady())
 110              		.loc 1 103 0
 111 002c FFF7FEFF 		bl	USBUART_DataIsReady
 112 0030 031E     		sub	r3, r0, #0
 113 0032 27D0     		beq	.L3
 104:main.c        ****             {
 105:main.c        ****                 /* Read received data and re-enable OUT endpoint. */
 106:main.c        ****                 count = USBUART_GetAll(buffer);
 114              		.loc 1 106 0
 115 0034 4623     		mov	r3, #70
 116 0036 FC18     		add	r4, r7, r3
 117 0038 3B1D     		add	r3, r7, #4
 118 003a 181C     		mov	r0, r3
ARM GAS  C:\Users\arh\AppData\Local\Temp\ccmc4WvP.s 			page 5


 119 003c FFF7FEFF 		bl	USBUART_GetAll
 120 0040 031C     		mov	r3, r0
 121 0042 2380     		strh	r3, [r4]
 107:main.c        **** 
 108:main.c        ****                 if (0u != count)
 122              		.loc 1 108 0
 123 0044 4623     		mov	r3, #70
 124 0046 FB18     		add	r3, r7, r3
 125 0048 1B88     		ldrh	r3, [r3]
 126 004a 002B     		cmp	r3, #0
 127 004c 1AD0     		beq	.L3
 109:main.c        ****                 {
 110:main.c        ****                     /* Wait until component is ready to send data to host. */
 111:main.c        ****                     while (0u == USBUART_CDCIsReady())
 128              		.loc 1 111 0
 129 004e C046     		mov	r8, r8
 130              	.L4:
 131              		.loc 1 111 0 is_stmt 0 discriminator 1
 132 0050 FFF7FEFF 		bl	USBUART_CDCIsReady
 133 0054 031E     		sub	r3, r0, #0
 134 0056 FBD0     		beq	.L4
 112:main.c        ****                     {
 113:main.c        ****                     }
 114:main.c        **** 
 115:main.c        ****                     /* Send data back to host. */
 116:main.c        ****                     USBUART_PutData(buffer, count);
 135              		.loc 1 116 0 is_stmt 1
 136 0058 3A1D     		add	r2, r7, #4
 137 005a 4623     		mov	r3, #70
 138 005c FB18     		add	r3, r7, r3
 139 005e 1B88     		ldrh	r3, [r3]
 140 0060 101C     		mov	r0, r2
 141 0062 191C     		mov	r1, r3
 142 0064 FFF7FEFF 		bl	USBUART_PutData
 117:main.c        **** 
 118:main.c        ****                     /* If the last sent packet is exactly the maximum packet 
 119:main.c        ****                     *  size, it is followed by a zero-length packet to assure
 120:main.c        ****                     *  that the end of the segment is properly identified by 
 121:main.c        ****                     *  the terminal.
 122:main.c        ****                     */
 123:main.c        ****                     if (USBUART_BUFFER_SIZE == count)
 143              		.loc 1 123 0
 144 0068 4623     		mov	r3, #70
 145 006a FB18     		add	r3, r7, r3
 146 006c 1B88     		ldrh	r3, [r3]
 147 006e 402B     		cmp	r3, #64
 148 0070 08D1     		bne	.L3
 124:main.c        ****                     {
 125:main.c        ****                         /* Wait until component is ready to send data to PC. */
 126:main.c        ****                         while (0u == USBUART_CDCIsReady())
 149              		.loc 1 126 0
 150 0072 C046     		mov	r8, r8
 151              	.L5:
 152              		.loc 1 126 0 is_stmt 0 discriminator 1
 153 0074 FFF7FEFF 		bl	USBUART_CDCIsReady
 154 0078 031E     		sub	r3, r0, #0
 155 007a FBD0     		beq	.L5
ARM GAS  C:\Users\arh\AppData\Local\Temp\ccmc4WvP.s 			page 6


 127:main.c        ****                         {
 128:main.c        ****                         }
 129:main.c        **** 
 130:main.c        ****                         /* Send zero-length packet to PC. */
 131:main.c        ****                         USBUART_PutData(NULL, 0u);
 156              		.loc 1 131 0 is_stmt 1
 157 007c 0020     		mov	r0, #0
 158 007e 0021     		mov	r1, #0
 159 0080 FFF7FEFF 		bl	USBUART_PutData
 160              	.L3:
 132:main.c        ****                     }
 133:main.c        ****                 }
 134:main.c        ****             }
 135:main.c        **** 
 136:main.c        **** 
 137:main.c        ****         #if (CY_PSOC3 || CY_PSOC5LP)
 138:main.c        ****             /* Check for Line settings change. */
 139:main.c        ****             state = USBUART_IsLineChanged();
 140:main.c        ****             if (0u != state)
 141:main.c        ****             {
 142:main.c        ****                 /* Output on LCD Line Coding settings. */
 143:main.c        ****                 if (0u != (state & USBUART_LINE_CODING_CHANGED))
 144:main.c        ****                 {                  
 145:main.c        ****                     /* Get string to output. */
 146:main.c        ****                     sprintf(lineStr,"BR:%4ld %d%c%s", USBUART_GetDTERate(),\
 147:main.c        ****                                    (uint16) USBUART_GetDataBits(),\
 148:main.c        ****                                    parity[(uint16) USBUART_GetParityType()][0],\
 149:main.c        ****                                    stop[(uint16) USBUART_GetCharFormat()]);
 150:main.c        **** 
 151:main.c        ****                     /* Clear LCD line. */
 152:main.c        ****                     LCD_Position(0u, 0u);
 153:main.c        ****                     LCD_PrintString("                    ");
 154:main.c        **** 
 155:main.c        ****                     /* Output string on LCD. */
 156:main.c        ****                     LCD_Position(0u, 0u);
 157:main.c        ****                     LCD_PrintString(lineStr);
 158:main.c        ****                 }
 159:main.c        **** 
 160:main.c        ****                 /* Output on LCD Line Control settings. */
 161:main.c        ****                 if (0u != (state & USBUART_LINE_CONTROL_CHANGED))
 162:main.c        ****                 {                   
 163:main.c        ****                     /* Get string to output. */
 164:main.c        ****                     state = USBUART_GetLineControl();
 165:main.c        ****                     sprintf(lineStr,"DTR:%s,RTS:%s",  (0u != (state & USBUART_LINE_CONTROL_DTR)) ? 
 166:main.c        ****                                                       (0u != (state & USBUART_LINE_CONTROL_RTS)) ? 
 167:main.c        **** 
 168:main.c        ****                     /* Clear LCD line. */
 169:main.c        ****                     LCD_Position(1u, 0u);
 170:main.c        ****                     LCD_PrintString("                    ");
 171:main.c        **** 
 172:main.c        ****                     /* Output string on LCD. */
 173:main.c        ****                     LCD_Position(1u, 0u);
 174:main.c        ****                     LCD_PrintString(lineStr);
 175:main.c        ****                 }
 176:main.c        ****             }
 177:main.c        ****         #endif /* (CY_PSOC3 || CY_PSOC5LP) */
 178:main.c        ****         }
ARM GAS  C:\Users\arh\AppData\Local\Temp\ccmc4WvP.s 			page 7


 179:main.c        ****     }
 161              		.loc 1 179 0
 162 0084 C4E7     		b	.L6
 163              		.cfi_endproc
 164              	.LFE36:
 165              		.size	main, .-main
 166 0086 C046     		.text
 167              	.Letext0:
 168              		.file 2 "Generated_Source\\PSoC4/cytypes.h"