ARM GAS  C:\Users\arh\AppData\Local\Temp\ccDT6i7j.s 			page 1


   1              		.cpu cortex-m0
   2              		.fpu softvfp
   3              		.eabi_attribute 20, 1
   4              		.eabi_attribute 21, 1
   5              		.eabi_attribute 23, 3
   6              		.eabi_attribute 24, 1
   7              		.eabi_attribute 25, 1
   8              		.eabi_attribute 26, 1
   9              		.eabi_attribute 30, 6
  10              		.eabi_attribute 34, 0
  11              		.eabi_attribute 18, 4
  12              		.code	16
  13              		.file	"USBUART_vnd.c"
  14              		.text
  15              	.Ltext0:
  16              		.cfi_sections	.debug_frame
  17              		.section	.text.USBUART_HandleVendorRqst,"ax",%progbits
  18              		.align	2
  19              		.global	USBUART_HandleVendorRqst
  20              		.code	16
  21              		.thumb_func
  22              		.type	USBUART_HandleVendorRqst, %function
  23              	USBUART_HandleVendorRqst:
  24              	.LFB1:
  25              		.file 1 "Generated_Source\\PSoC4\\USBUART_vnd.c"
   1:Generated_Source\PSoC4/USBUART_vnd.c **** /***************************************************************************//**
   2:Generated_Source\PSoC4/USBUART_vnd.c **** * \file USBUART_vnd.c
   3:Generated_Source\PSoC4/USBUART_vnd.c **** * \version 3.10
   4:Generated_Source\PSoC4/USBUART_vnd.c **** *
   5:Generated_Source\PSoC4/USBUART_vnd.c **** * \brief
   6:Generated_Source\PSoC4/USBUART_vnd.c **** *  This file contains the  USB vendor request handler.
   7:Generated_Source\PSoC4/USBUART_vnd.c **** *
   8:Generated_Source\PSoC4/USBUART_vnd.c **** ********************************************************************************
   9:Generated_Source\PSoC4/USBUART_vnd.c **** * \copyright
  10:Generated_Source\PSoC4/USBUART_vnd.c **** * Copyright 2008-2016, Cypress Semiconductor Corporation.  All rights reserved.
  11:Generated_Source\PSoC4/USBUART_vnd.c **** * You may use this file only in accordance with the license, terms, conditions,
  12:Generated_Source\PSoC4/USBUART_vnd.c **** * disclaimers, and limitations in the end user license agreement accompanying
  13:Generated_Source\PSoC4/USBUART_vnd.c **** * the software package with which this file was provided.
  14:Generated_Source\PSoC4/USBUART_vnd.c **** *******************************************************************************/
  15:Generated_Source\PSoC4/USBUART_vnd.c **** 
  16:Generated_Source\PSoC4/USBUART_vnd.c **** #include "USBUART_pvt.h"
  17:Generated_Source\PSoC4/USBUART_vnd.c **** #include "cyapicallbacks.h"
  18:Generated_Source\PSoC4/USBUART_vnd.c **** 
  19:Generated_Source\PSoC4/USBUART_vnd.c **** #if(USBUART_EXTERN_VND == USBUART_FALSE)
  20:Generated_Source\PSoC4/USBUART_vnd.c **** 
  21:Generated_Source\PSoC4/USBUART_vnd.c **** /***************************************
  22:Generated_Source\PSoC4/USBUART_vnd.c **** * Vendor Specific Declarations
  23:Generated_Source\PSoC4/USBUART_vnd.c **** ***************************************/
  24:Generated_Source\PSoC4/USBUART_vnd.c **** 
  25:Generated_Source\PSoC4/USBUART_vnd.c **** /* `#START VENDOR_SPECIFIC_DECLARATIONS` Place your declaration here */
  26:Generated_Source\PSoC4/USBUART_vnd.c **** 
  27:Generated_Source\PSoC4/USBUART_vnd.c **** /* `#END` */
  28:Generated_Source\PSoC4/USBUART_vnd.c **** 
  29:Generated_Source\PSoC4/USBUART_vnd.c **** 
  30:Generated_Source\PSoC4/USBUART_vnd.c **** /*******************************************************************************
  31:Generated_Source\PSoC4/USBUART_vnd.c **** * Function Name: USBUART_HandleVendorRqst
  32:Generated_Source\PSoC4/USBUART_vnd.c **** ****************************************************************************//**
ARM GAS  C:\Users\arh\AppData\Local\Temp\ccDT6i7j.s 			page 2


  33:Generated_Source\PSoC4/USBUART_vnd.c **** *
  34:Generated_Source\PSoC4/USBUART_vnd.c **** *  This routine provide users with a method to implement vendor specific
  35:Generated_Source\PSoC4/USBUART_vnd.c **** *  requests.
  36:Generated_Source\PSoC4/USBUART_vnd.c **** *
  37:Generated_Source\PSoC4/USBUART_vnd.c **** *  To implement vendor specific requests, add your code in this function to
  38:Generated_Source\PSoC4/USBUART_vnd.c **** *  decode and disposition the request.  If the request is handled, your code
  39:Generated_Source\PSoC4/USBUART_vnd.c **** *  must set the variable "requestHandled" to TRUE, indicating that the
  40:Generated_Source\PSoC4/USBUART_vnd.c **** *  request has been handled.
  41:Generated_Source\PSoC4/USBUART_vnd.c **** *
  42:Generated_Source\PSoC4/USBUART_vnd.c **** * \return
  43:Generated_Source\PSoC4/USBUART_vnd.c **** *  requestHandled.
  44:Generated_Source\PSoC4/USBUART_vnd.c **** *
  45:Generated_Source\PSoC4/USBUART_vnd.c **** * \reentrant
  46:Generated_Source\PSoC4/USBUART_vnd.c **** *  No.
  47:Generated_Source\PSoC4/USBUART_vnd.c **** *
  48:Generated_Source\PSoC4/USBUART_vnd.c **** *******************************************************************************/
  49:Generated_Source\PSoC4/USBUART_vnd.c **** uint8 USBUART_HandleVendorRqst(void) 
  50:Generated_Source\PSoC4/USBUART_vnd.c **** {
  26              		.loc 1 50 0
  27              		.cfi_startproc
  28 0000 90B5     		push	{r4, r7, lr}
  29              		.cfi_def_cfa_offset 12
  30              		.cfi_offset 4, -12
  31              		.cfi_offset 7, -8
  32              		.cfi_offset 14, -4
  33 0002 83B0     		sub	sp, sp, #12
  34              		.cfi_def_cfa_offset 24
  35 0004 00AF     		add	r7, sp, #0
  36              		.cfi_def_cfa_register 7
  51:Generated_Source\PSoC4/USBUART_vnd.c ****     uint8 requestHandled = USBUART_FALSE;
  37              		.loc 1 51 0
  38 0006 FB1D     		add	r3, r7, #7
  39 0008 0022     		mov	r2, #0
  40 000a 1A70     		strb	r2, [r3]
  52:Generated_Source\PSoC4/USBUART_vnd.c **** 
  53:Generated_Source\PSoC4/USBUART_vnd.c ****     /* Check request direction: D2H or H2D. */
  54:Generated_Source\PSoC4/USBUART_vnd.c ****     if (0u != (USBUART_bmRequestTypeReg & USBUART_RQST_DIR_D2H))
  41              		.loc 1 54 0
  42 000c 0E4B     		ldr	r3, .L6
  43 000e 1B68     		ldr	r3, [r3]
  44 0010 8022     		mov	r2, #128
  45 0012 1340     		and	r3, r2
  46 0014 12D0     		beq	.L2
  55:Generated_Source\PSoC4/USBUART_vnd.c ****     {
  56:Generated_Source\PSoC4/USBUART_vnd.c ****         /* Handle direction from device to host. */
  57:Generated_Source\PSoC4/USBUART_vnd.c ****         
  58:Generated_Source\PSoC4/USBUART_vnd.c ****         switch (USBUART_bRequestReg)
  47              		.loc 1 58 0
  48 0016 0C4B     		ldr	r3, .L6
  49 0018 5B68     		ldr	r3, [r3, #4]
  50 001a 012B     		cmp	r3, #1
  51 001c 00D0     		beq	.L4
  59:Generated_Source\PSoC4/USBUART_vnd.c ****         {
  60:Generated_Source\PSoC4/USBUART_vnd.c ****             case USBUART_GET_EXTENDED_CONFIG_DESCRIPTOR:
  61:Generated_Source\PSoC4/USBUART_vnd.c ****             #if defined(USBUART_ENABLE_MSOS_STRING)
  62:Generated_Source\PSoC4/USBUART_vnd.c ****                 USBUART_currentTD.pData = (volatile uint8 *) &USBUART_MSOS_CONFIGURATION_DESCR[0u];
  63:Generated_Source\PSoC4/USBUART_vnd.c ****                 USBUART_currentTD.count = USBUART_MSOS_CONFIGURATION_DESCR[0u];
ARM GAS  C:\Users\arh\AppData\Local\Temp\ccDT6i7j.s 			page 3


  64:Generated_Source\PSoC4/USBUART_vnd.c ****                 requestHandled  = USBUART_InitControlRead();
  65:Generated_Source\PSoC4/USBUART_vnd.c ****             #endif /* (USBUART_ENABLE_MSOS_STRING) */
  66:Generated_Source\PSoC4/USBUART_vnd.c ****                 break;
  67:Generated_Source\PSoC4/USBUART_vnd.c ****             
  68:Generated_Source\PSoC4/USBUART_vnd.c ****             default:
  69:Generated_Source\PSoC4/USBUART_vnd.c ****                 break;
  52              		.loc 1 69 0
  53 001e 0DE0     		b	.L2
  54              	.L4:
  62:Generated_Source\PSoC4/USBUART_vnd.c ****                 USBUART_currentTD.count = USBUART_MSOS_CONFIGURATION_DESCR[0u];
  55              		.loc 1 62 0
  56 0020 0A4B     		ldr	r3, .L6+4
  57 0022 0B4A     		ldr	r2, .L6+8
  58 0024 5A60     		str	r2, [r3, #4]
  63:Generated_Source\PSoC4/USBUART_vnd.c ****                 requestHandled  = USBUART_InitControlRead();
  59              		.loc 1 63 0
  60 0026 0A4B     		ldr	r3, .L6+8
  61 0028 1B78     		ldrb	r3, [r3]
  62 002a 9AB2     		uxth	r2, r3
  63 002c 074B     		ldr	r3, .L6+4
  64 002e 1A80     		strh	r2, [r3]
  64:Generated_Source\PSoC4/USBUART_vnd.c ****             #endif /* (USBUART_ENABLE_MSOS_STRING) */
  65              		.loc 1 64 0
  66 0030 FC1D     		add	r4, r7, #7
  67 0032 FFF7FEFF 		bl	USBUART_InitControlRead
  68 0036 031C     		mov	r3, r0
  69 0038 2370     		strb	r3, [r4]
  66:Generated_Source\PSoC4/USBUART_vnd.c ****             
  70              		.loc 1 66 0
  71 003a C046     		mov	r8, r8
  72              	.L2:
  70:Generated_Source\PSoC4/USBUART_vnd.c ****         }
  71:Generated_Source\PSoC4/USBUART_vnd.c ****     }
  72:Generated_Source\PSoC4/USBUART_vnd.c **** 
  73:Generated_Source\PSoC4/USBUART_vnd.c ****     /* `#START VENDOR_SPECIFIC_CODE` Place your vendor specific request here */
  74:Generated_Source\PSoC4/USBUART_vnd.c **** 
  75:Generated_Source\PSoC4/USBUART_vnd.c ****     /* `#END` */
  76:Generated_Source\PSoC4/USBUART_vnd.c **** 
  77:Generated_Source\PSoC4/USBUART_vnd.c **** #ifdef USBUART_HANDLE_VENDOR_RQST_CALLBACK
  78:Generated_Source\PSoC4/USBUART_vnd.c ****     if (USBUART_FALSE == requestHandled)
  79:Generated_Source\PSoC4/USBUART_vnd.c ****     {
  80:Generated_Source\PSoC4/USBUART_vnd.c ****         requestHandled = USBUART_HandleVendorRqst_Callback();
  81:Generated_Source\PSoC4/USBUART_vnd.c ****     }
  82:Generated_Source\PSoC4/USBUART_vnd.c **** #endif /* (USBUART_HANDLE_VENDOR_RQST_CALLBACK) */
  83:Generated_Source\PSoC4/USBUART_vnd.c **** 
  84:Generated_Source\PSoC4/USBUART_vnd.c ****     return (requestHandled);
  73              		.loc 1 84 0
  74 003c FB1D     		add	r3, r7, #7
  75 003e 1B78     		ldrb	r3, [r3]
  85:Generated_Source\PSoC4/USBUART_vnd.c **** }
  76              		.loc 1 85 0
  77 0040 181C     		mov	r0, r3
  78 0042 BD46     		mov	sp, r7
  79 0044 03B0     		add	sp, sp, #12
  80              		@ sp needed
  81 0046 90BD     		pop	{r4, r7, pc}
  82              	.L7:
ARM GAS  C:\Users\arh\AppData\Local\Temp\ccDT6i7j.s 			page 4


  83              		.align	2
  84              	.L6:
  85 0048 00002C40 		.word	1076625408
  86 004c 00000000 		.word	USBUART_currentTD
  87 0050 00000000 		.word	USBUART_MSOS_CONFIGURATION_DESCR
  88              		.cfi_endproc
  89              	.LFE1:
  90              		.size	USBUART_HandleVendorRqst, .-USBUART_HandleVendorRqst
  91              		.text
  92              	.Letext0:
  93              		.file 2 "Generated_Source\\PSoC4\\cytypes.h"
  94              		.file 3 "Generated_Source\\PSoC4\\USBUART.h"
  95              		.file 4 "Generated_Source\\PSoC4\\USBUART_pvt.h"